target datalayout = "e-m:e-p270:32:32-p271:32:32-p272:64:64-i64:64-i128:128-f80:128-n8:16:32:64-S128"
target triple = "x86_64-pc-linux-gnu"

%struct.pointf_s = type { double, double }
%struct.GVJ_s = type { ptr, ptr, ptr, ptr, ptr, ptr, i32, ptr, ptr, ptr, ptr, i64, i64, ptr, i32, %struct.gvplugin_active_render_s, %struct.gvplugin_active_device_s, %struct.gvplugin_active_loadimage_t, ptr, %struct.pointf_s, i8, ptr, i32, ptr, i8, ptr, i32, i32, i32, %struct.point, %struct.point, %struct.point, %struct.point, %struct.point, i32, %struct.boxf, %struct.pointf_s, %struct.boxf, %struct.boxf, %struct.pointf_s, %struct.pointf_s, double, i32, %struct.pointf_s, %struct.boxf, %struct.pointf_s, %struct.pointf_s, i32, i32, %struct.box, %struct.box, %struct.pointf_s, %struct.pointf_s, %struct.pointf_s, i8, i8, i8, i8, i8, i8, %struct.pointf_s, %struct.pointf_s, ptr, ptr, ptr, ptr, ptr, ptr, i64, ptr }
%struct.gvplugin_active_render_s = type { ptr, i32, ptr, ptr }
%struct.gvplugin_active_device_s = type { ptr, i32, ptr, ptr }
%struct.gvplugin_active_loadimage_t = type { ptr, i32, ptr }
%struct.point = type { i32, i32 }
%struct.boxf = type { %struct.pointf_s, %struct.pointf_s }
%struct.box = type { %struct.point, %struct.point }
%struct.obj_state_s = type { ptr, i32, %union.anon, i32, %struct.color_s, %struct.color_s, %struct.color_s, i32, double, i32, i32, double, ptr, double, double, double, ptr, ptr, ptr, ptr, ptr, ptr, ptr, ptr, ptr, ptr, ptr, ptr, ptr, ptr, ptr, ptr, ptr, i16, i32, i64, ptr, i64, ptr, ptr, i32, ptr, i32, ptr }
%union.anon = type { ptr }
%struct.color_s = type { %union.anon.0, i32 }
%union.anon.0 = type { [4 x double] }
%struct.textspan_t = type { ptr, ptr, ptr, ptr, double, double, %struct.pointf_s, i8 }
%struct.textfont_t = type { ptr, ptr, ptr, double, i32 }
%struct._PostscriptAlias = type { ptr, ptr, ptr, ptr, ptr, i32, ptr, ptr, ptr }

@Depth = internal global i32 0, align 4
@.str.16 = private unnamed_addr constant [52 x i8] c"%d %d %d %d %d %d %.1f %.4f %d %.1f %.1f %.0f %.0f \00", align 1
@.str.17 = private unnamed_addr constant [6 x i8] c"\\001\0A\00", align 1

; Function Attrs: nounwind uwtable
define internal void @fig_textspan(ptr noundef %0, double %1, double %2, ptr noundef %3) #0 {
  %5 = alloca %struct.pointf_s, align 8
  %6 = alloca ptr, align 8
  %7 = alloca ptr, align 8
  %8 = alloca ptr, align 8
  %9 = alloca ptr, align 8
  %10 = alloca i32, align 4
  %11 = alloca i32, align 4
  %12 = alloca i32, align 4
  %13 = alloca i32, align 4
  %14 = alloca i32, align 4
  %15 = alloca i32, align 4
  %16 = alloca double, align 8
  %17 = alloca double, align 8
  %18 = alloca i32, align 4
  %19 = alloca double, align 8
  %20 = alloca i64, align 8
  %21 = alloca double, align 8
  %22 = getelementptr inbounds nuw { double, double }, ptr %5, i32 0, i32 0
  store double %1, ptr %22, align 8
  %23 = getelementptr inbounds nuw { double, double }, ptr %5, i32 0, i32 1
  store double %2, ptr %23, align 8
  store ptr %0, ptr %6, align 8, !tbaa !3
  store ptr %3, ptr %7, align 8, !tbaa !41
  call void @llvm.lifetime.start.p0(i64 8, ptr %8) #14
  %24 = load ptr, ptr %6, align 8, !tbaa !3
  %25 = getelementptr inbounds nuw %struct.GVJ_s, ptr %24, i32 0, i32 4
  %26 = load ptr, ptr %25, align 8, !tbaa !8
  store ptr %26, ptr %8, align 8, !tbaa !31
  call void @llvm.lifetime.start.p0(i64 8, ptr %9) #14
  call void @llvm.lifetime.start.p0(i64 4, ptr %10) #14
  store i32 4, ptr %10, align 4, !tbaa !40
  call void @llvm.lifetime.start.p0(i64 4, ptr %11) #14
  store i32 0, ptr %11, align 4, !tbaa !40
  call void @llvm.lifetime.start.p0(i64 4, ptr %12) #14
  %27 = load ptr, ptr %8, align 8, !tbaa !31
  %28 = getelementptr inbounds nuw %struct.obj_state_s, ptr %27, i32 0, i32 4
  %29 = getelementptr inbounds nuw %struct.color_s, ptr %28, i32 0, i32 0
  %30 = load i32, ptr %29, align 8, !tbaa !37
  store i32 %30, ptr %12, align 4, !tbaa !40
  call void @llvm.lifetime.start.p0(i64 4, ptr %13) #14
  %31 = load i32, ptr @Depth, align 4, !tbaa !40
  store i32 %31, ptr %13, align 4, !tbaa !40
  call void @llvm.lifetime.start.p0(i64 4, ptr %14) #14
  store i32 0, ptr %14, align 4, !tbaa !40
  call void @llvm.lifetime.start.p0(i64 4, ptr %15) #14
  store i32 -1, ptr %15, align 4, !tbaa !40
  call void @llvm.lifetime.start.p0(i64 8, ptr %16) #14
  %32 = load ptr, ptr %7, align 8, !tbaa !41
  %33 = getelementptr inbounds nuw %struct.textspan_t, ptr %32, i32 0, i32 1
  %34 = load ptr, ptr %33, align 8, !tbaa !42
  %35 = getelementptr inbounds nuw %struct.textfont_t, ptr %34, i32 0, i32 3
  %36 = load double, ptr %35, align 8, !tbaa !44
  %37 = load ptr, ptr %6, align 8, !tbaa !3
  %38 = getelementptr inbounds nuw %struct.GVJ_s, ptr %37, i32 0, i32 41
  %39 = load double, ptr %38, align 8, !tbaa !47
  %40 = fmul double %36, %39
  store double %40, ptr %16, align 8, !tbaa !48
  call void @llvm.lifetime.start.p0(i64 8, ptr %17) #14
  %41 = load ptr, ptr %6, align 8, !tbaa !3
  %42 = getelementptr inbounds nuw %struct.GVJ_s, ptr %41, i32 0, i32 42
  %43 = load i32, ptr %42, align 8, !tbaa !49
  %44 = icmp ne i32 %43, 0
  %45 = select i1 %44, double 0x3FF921FB54442D18, double 0.000000e+00
  store double %45, ptr %17, align 8, !tbaa !48
  call void @llvm.lifetime.start.p0(i64 4, ptr %18) #14
  store i32 6, ptr %18, align 4, !tbaa !40
  call void @llvm.lifetime.start.p0(i64 8, ptr %19) #14
  %46 = load double, ptr %16, align 8, !tbaa !48
  store double %46, ptr %19, align 8, !tbaa !48
  call void @llvm.lifetime.start.p0(i64 8, ptr %20) #14
  %47 = load ptr, ptr %7, align 8, !tbaa !41
  %48 = getelementptr inbounds nuw %struct.textspan_t, ptr %47, i32 0, i32 0
  %49 = load ptr, ptr %48, align 8, !tbaa !50
  %50 = call i64 @strlen(ptr noundef %49) #15
  store i64 %50, ptr %20, align 8, !tbaa !51
  call void @llvm.lifetime.start.p0(i64 8, ptr %21) #14
  %51 = load double, ptr %16, align 8, !tbaa !48
  %52 = fmul double 2.000000e+00, %51
  %53 = fdiv double %52, 3.000000e+00
  %54 = load i64, ptr %20, align 8, !tbaa !51
  %55 = uitofp i64 %54 to double
  %56 = fmul double %53, %55
  %57 = fdiv double %56, 2.000000e+00
  store double %57, ptr %21, align 8, !tbaa !48
  %58 = load ptr, ptr %7, align 8, !tbaa !41
  %59 = getelementptr inbounds nuw %struct.textspan_t, ptr %58, i32 0, i32 1
  %60 = load ptr, ptr %59, align 8, !tbaa !42
  %61 = getelementptr inbounds nuw %struct.textfont_t, ptr %60, i32 0, i32 2
  %62 = load ptr, ptr %61, align 8, !tbaa !52
  store ptr %62, ptr %9, align 8, !tbaa !53
  %63 = load ptr, ptr %9, align 8, !tbaa !53
  %64 = icmp ne ptr %63, null
  br i1 %64, label %65, label %69

65:                                               ; preds = %4
  %66 = load ptr, ptr %9, align 8, !tbaa !53
  %67 = getelementptr inbounds nuw %struct._PostscriptAlias, ptr %66, i32 0, i32 5
  %68 = load i32, ptr %67, align 8, !tbaa !54
  store i32 %68, ptr %15, align 4, !tbaa !40
  br label %69

69:                                               ; preds = %65, %4
  %70 = load ptr, ptr %7, align 8, !tbaa !41
  %71 = getelementptr inbounds nuw %struct.textspan_t, ptr %70, i32 0, i32 7
  %72 = load i8, ptr %71, align 8, !tbaa !56
  %73 = sext i8 %72 to i32
  switch i32 %73, label %76 [
    i32 108, label %74
    i32 114, label %75
    i32 110, label %77
  ]

74:                                               ; preds = %69
  store i32 0, ptr %11, align 4, !tbaa !40
  br label %78

75:                                               ; preds = %69
  store i32 2, ptr %11, align 4, !tbaa !40
  br label %78

76:                                               ; preds = %69
  br label %77

77:                                               ; preds = %69, %76
  store i32 1, ptr %11, align 4, !tbaa !40
  br label %78

78:                                               ; preds = %77, %75, %74
  %79 = load ptr, ptr %6, align 8, !tbaa !3
  %80 = load i32, ptr %10, align 4, !tbaa !40
  %81 = load i32, ptr %11, align 4, !tbaa !40
  %82 = load i32, ptr %12, align 4, !tbaa !40
  %83 = load i32, ptr %13, align 4, !tbaa !40
  %84 = load i32, ptr %14, align 4, !tbaa !40
  %85 = load i32, ptr %15, align 4, !tbaa !40
  %86 = load double, ptr %16, align 8, !tbaa !48
  %87 = load double, ptr %17, align 8, !tbaa !48
  %88 = load i32, ptr %18, align 4, !tbaa !40
  %89 = load double, ptr %19, align 8, !tbaa !48
  %90 = load double, ptr %21, align 8, !tbaa !48
  %91 = getelementptr inbounds nuw %struct.pointf_s, ptr %5, i32 0, i32 0
  %92 = load double, ptr %91, align 8, !tbaa !57
  %93 = call double @llvm.round.f64(double %92)
  %94 = getelementptr inbounds nuw %struct.pointf_s, ptr %5, i32 0, i32 1
  %95 = load double, ptr %94, align 8, !tbaa !58
  %96 = fsub double %95, 7.200000e+01
  %97 = call double @llvm.round.f64(double %96)
  call void (ptr, ptr, ...) @gvprintf(ptr noundef %79, ptr noundef @.str.16, i32 noundef %80, i32 noundef %81, i32 noundef %82, i32 noundef %83, i32 noundef %84, i32 noundef %85, double noundef %86, double noundef %87, i32 noundef %88, double noundef %89, double noundef %90, double noundef %93, double noundef %97)
  %98 = load ptr, ptr %6, align 8, !tbaa !3
  %99 = load ptr, ptr %7, align 8, !tbaa !41
  %100 = getelementptr inbounds nuw %struct.textspan_t, ptr %99, i32 0, i32 0
  %101 = load ptr, ptr %100, align 8, !tbaa !50
  call void @gvputs_nonascii(ptr noundef %98, ptr noundef %101)
  %102 = load ptr, ptr %6, align 8, !tbaa !3
  %103 = call i32 @gvputs(ptr noundef %102, ptr noundef @.str.17)
  call void @llvm.lifetime.end.p0(i64 8, ptr %21) #14
  call void @llvm.lifetime.end.p0(i64 8, ptr %20) #14
  call void @llvm.lifetime.end.p0(i64 8, ptr %19) #14
  call void @llvm.lifetime.end.p0(i64 4, ptr %18) #14
  call void @llvm.lifetime.end.p0(i64 8, ptr %17) #14
  call void @llvm.lifetime.end.p0(i64 8, ptr %16) #14
  call void @llvm.lifetime.end.p0(i64 4, ptr %15) #14
  call void @llvm.lifetime.end.p0(i64 4, ptr %14) #14
  call void @llvm.lifetime.end.p0(i64 4, ptr %13) #14
  call void @llvm.lifetime.end.p0(i64 4, ptr %12) #14
  call void @llvm.lifetime.end.p0(i64 4, ptr %11) #14
  call void @llvm.lifetime.end.p0(i64 4, ptr %10) #14
  call void @llvm.lifetime.end.p0(i64 8, ptr %9) #14
  call void @llvm.lifetime.end.p0(i64 8, ptr %8) #14
  ret void
}