; Function Attrs: nounwind uwtable
define internal void @fig_textspan(ptr noundef %0, double %1, double %2, ptr noundef readonly captures(none) %3) #0 {
  %5 = getelementptr inbounds nuw i8, ptr %0, i64 32
  %6 = load ptr, ptr %5, align 8, !tbaa !3
  %7 = getelementptr inbounds nuw i8, ptr %6, i64 32
  %8 = load i32, ptr %7, align 8, !tbaa !35
  %9 = load i32, ptr @Depth, align 4, !tbaa !38
  %10 = getelementptr inbounds nuw i8, ptr %3, i64 8
  %11 = load ptr, ptr %10, align 8, !tbaa !39
  %12 = getelementptr inbounds nuw i8, ptr %11, i64 24
  %13 = load double, ptr %12, align 8, !tbaa !41
  %14 = getelementptr inbounds nuw i8, ptr %0, i64 480
  %15 = load double, ptr %14, align 8, !tbaa !44
  %16 = getelementptr inbounds nuw i8, ptr %0, i64 488
  %17 = load i32, ptr %16, align 8, !tbaa !45
  %18 = load ptr, ptr %3, align 8, !tbaa !46
  %19 = tail call i64 @strlen(ptr noundef nonnull dereferenceable(1) %18) #19
  %20 = getelementptr inbounds nuw i8, ptr %11, i64 16
  %21 = load ptr, ptr %20, align 8, !tbaa !47
  %.not29 = icmp eq ptr %21, null
  br i1 %.not29, label %25, label %22

22:                                               ; preds = %4
  %23 = getelementptr inbounds nuw i8, ptr %21, i64 40
  %24 = load i32, ptr %23, align 8, !tbaa !48
  br label %25

25:                                               ; preds = %22, %4
  %.027 = phi i32 [ %24, %22 ], [ -1, %4 ]
  %26 = getelementptr inbounds nuw i8, ptr %3, i64 64
  %27 = load i8, ptr %26, align 8, !tbaa !50
  %switch.selectcmp = icmp eq i8 %27, 114
  %switch.select = select i1 %switch.selectcmp, i32 2, i32 1
  %switch.selectcmp30 = icmp eq i8 %27, 108
  %switch.select31 = select i1 %switch.selectcmp30, i32 0, i32 %switch.select
  %28 = fmul double %13, %15
  %29 = fmul double %28, 2.000000e+00
  %30 = fdiv double %29, 3.000000e+00
  %31 = uitofp i64 %19 to double
  %32 = fmul double %30, %31
  %33 = fmul double %32, 5.000000e-01
  %.not = icmp eq i32 %17, 0
  %34 = select i1 %.not, double 0.000000e+00, double 0x3FF921FB54442D18
  %35 = tail call double @llvm.round.f64(double %1)
  %36 = fadd double %2, -7.200000e+01
  %37 = tail call double @llvm.round.f64(double %36)
  tail call void (ptr, ptr, ...) @gvprintf(ptr noundef nonnull %0, ptr noundef nonnull @.str.16, i32 noundef 4, i32 noundef %switch.select31, i32 noundef %8, i32 noundef %9, i32 noundef 0, i32 noundef %.027, double noundef %28, double noundef %34, i32 noundef 6, double noundef %28, double noundef %33, double noundef %35, double noundef %37) #18
  %38 = load ptr, ptr %3, align 8, !tbaa !46
  tail call void @gvputs_nonascii(ptr noundef nonnull %0, ptr noundef %38) #18
  %39 = tail call i32 @gvputs(ptr noundef nonnull %0, ptr noundef nonnull @.str.17) #18
  ret void
}